; Function Attrs: mustprogress uwtable
define void @_Z33grpc_validate_header_key_is_legalRK10grpc_slice(ptr dead_on_unwind noalias writable sret(%"class.absl::lts_20240722::Status") align 8 %0, ptr noundef nonnull readonly align 8 dereferenceable(32) %1) local_unnamed_addr #4 personality ptr @__gxx_personality_v0 {
  %3 = load ptr, ptr %1, align 8, !tbaa !8
  %.not.i = icmp eq ptr %3, null
  %4 = getelementptr inbounds nuw i8, ptr %1, i64 16
  %5 = load ptr, ptr %4, align 8
  %6 = getelementptr inbounds nuw i8, ptr %1, i64 9
  %7 = select i1 %.not.i, ptr %6, ptr %5
  %8 = getelementptr inbounds nuw i8, ptr %1, i64 8
  %9 = load i64, ptr %8, align 8
  %10 = and i64 %9, 255
  %11 = select i1 %.not.i, i64 %10, i64 %9
  %12 = icmp eq i64 %11, 0
  br i1 %12, label %_ZN9grpc_core30ValidateMetadataResultToStringENS_22ValidateMetadataResultE.exit.i, label %13

13:                                               ; preds = %2
  %14 = icmp ugt i64 %11, 4294967295
  br i1 %14, label %_ZN9grpc_core30ValidateMetadataResultToStringENS_22ValidateMetadataResultE.exit.i, label %15

15:                                               ; preds = %13
  %16 = getelementptr inbounds nuw i8, ptr %7, i64 %11
  br label %.lr.ph.i.i

17:                                               ; preds = %.lr.ph.i.i
  %18 = getelementptr inbounds nuw i8, ptr %.01317.i.i, i64 1
  %.not.i.i = icmp eq ptr %18, %16
  br i1 %.not.i.i, label %27, label %.lr.ph.i.i

.lr.ph.i.i:                                       ; preds = %17, %15
  %.01317.i.i = phi ptr [ %18, %17 ], [ %7, %15 ]
  %19 = load i8, ptr %.01317.i.i, align 1, !tbaa !3
  %20 = zext i8 %19 to i64
  %21 = lshr i64 %20, 6
  %22 = getelementptr inbounds nuw [4 x i64], ptr @_ZN9grpc_core12_GLOBAL__N_123g_legal_header_key_bitsE, i64 0, i64 %21
  %23 = load i64, ptr %22, align 8, !tbaa !6
  %24 = and i64 %20, 63
  %25 = shl nuw i64 1, %24
  %26 = and i64 %25, %23
  %.not15.i.i = icmp eq i64 %26, 0
  br i1 %.not15.i.i, label %28, label %17

27:                                               ; preds = %17
  store i64 1, ptr %0, align 8, !tbaa !12, !alias.scope !14
  br label %_ZN9grpc_core12_GLOBAL__N_115UpgradeToStatusENS_22ValidateMetadataResultE.exit

28:                                               ; preds = %.lr.ph.i.i
  tail call void @llvm.experimental.noalias.scope.decl(metadata !19)
  br label %_ZN9grpc_core30ValidateMetadataResultToStringENS_22ValidateMetadataResultE.exit.i

_ZN9grpc_core30ValidateMetadataResultToStringENS_22ValidateMetadataResultE.exit.i: ; preds = %13, %2, %28
  %.0.i.i = phi ptr [ @.str.3, %28 ], [ @.str.1, %2 ], [ @.str.2, %13 ]
  %29 = tail call noundef i64 @strlen(ptr noundef nonnull dereferenceable(1) %.0.i.i) #14, !noalias !19
  tail call void @_ZN4absl12lts_2024072213InternalErrorESt17basic_string_viewIcSt11char_traitsIcEE(ptr dead_on_unwind writable sret(%"class.absl::lts_20240722::Status") align 8 %0, i64 %29, ptr nonnull %.0.i.i)
  br label %_ZN9grpc_core12_GLOBAL__N_115UpgradeToStatusENS_22ValidateMetadataResultE.exit

_ZN9grpc_core12_GLOBAL__N_115UpgradeToStatusENS_22ValidateMetadataResultE.exit: ; preds = %27, %_ZN9grpc_core30ValidateMetadataResultToStringENS_22ValidateMetadataResultE.exit.i
  ret void
}